; Function Attrs: inlinehint nounwind uwtable
define internal fastcc zeroext i1 @lxb_html_tree_insertion_mode_in_body_text(ptr noundef %0, ptr noundef %1) unnamed_addr #3 {
  %3 = alloca %struct.lexbor_str_t, align 8
  call void @llvm.lifetime.start.p0(i64 16, ptr nonnull %3) #6
  %4 = getelementptr inbounds nuw i8, ptr %1, i64 72
  %5 = load i64, ptr %4, align 8, !tbaa !46
  %.not = icmp eq i64 %5, 0
  br i1 %.not, label %12, label %6

6:                                                ; preds = %2
  tail call void @lxb_html_tree_parse_error(ptr noundef %0, ptr noundef nonnull %1, i32 noundef 2) #6
  %7 = getelementptr inbounds nuw i8, ptr %0, i64 8
  %8 = load ptr, ptr %7, align 8, !tbaa !47
  %9 = getelementptr inbounds nuw i8, ptr %8, i64 192
  %10 = load ptr, ptr %9, align 8, !tbaa !48
  %11 = call i32 @lxb_html_token_make_text_drop_null(ptr noundef nonnull %1, ptr noundef nonnull %3, ptr noundef %10) #6
  br label %18

12:                                               ; preds = %2
  %13 = getelementptr inbounds nuw i8, ptr %0, i64 8
  %14 = load ptr, ptr %13, align 8, !tbaa !47
  %15 = getelementptr inbounds nuw i8, ptr %14, i64 192
  %16 = load ptr, ptr %15, align 8, !tbaa !48
  %17 = call i32 @lxb_html_token_make_text(ptr noundef nonnull %1, ptr noundef nonnull %3, ptr noundef %16) #6
  br label %18

18:                                               ; preds = %12, %6
  %.sink = phi i32 [ %17, %12 ], [ %11, %6 ]
  %19 = getelementptr inbounds nuw i8, ptr %0, i64 112
  store i32 %.sink, ptr %19, align 8, !tbaa !22
  %.not16 = icmp eq i32 %.sink, 0
  br i1 %.not16, label %22, label %20

20:                                               ; preds = %18
  %21 = call zeroext i1 @lxb_html_tree_process_abort(ptr noundef nonnull %0) #6
  br label %51

22:                                               ; preds = %18
  %23 = getelementptr inbounds nuw i8, ptr %3, i64 8
  %24 = load i64, ptr %23, align 8, !tbaa !30
  %25 = icmp eq i64 %24, 0
  br i1 %25, label %26, label %32

26:                                               ; preds = %22
  %27 = getelementptr inbounds nuw i8, ptr %0, i64 8
  %28 = load ptr, ptr %27, align 8, !tbaa !47
  %29 = getelementptr inbounds nuw i8, ptr %28, i64 192
  %30 = load ptr, ptr %29, align 8, !tbaa !48
  %31 = call ptr @lexbor_str_destroy(ptr noundef nonnull %3, ptr noundef %30, i1 noundef zeroext false) #6
  br label %51

32:                                               ; preds = %22
  %33 = call i32 @lxb_html_tree_active_formatting_reconstruct_elements(ptr noundef nonnull %0) #6
  store i32 %33, ptr %19, align 8, !tbaa !22
  %.not.i = icmp eq i32 %33, 0
  br i1 %.not.i, label %34, label %lxb_html_tree_insertion_mode_in_body_text_append.exit.thread

34:                                               ; preds = %32
  %35 = getelementptr inbounds nuw i8, ptr %0, i64 81
  %36 = load i8, ptr %35, align 1, !tbaa !25, !range !26, !noundef !27
  %37 = trunc nuw i8 %36 to i1
  br i1 %37, label %38, label %lxb_html_tree_insertion_mode_in_body_text_append.exit

38:                                               ; preds = %34
  %39 = load ptr, ptr %3, align 8, !tbaa !28
  %40 = load i64, ptr %23, align 8, !tbaa !30
  %41 = getelementptr inbounds nuw i8, ptr %39, i64 %40
  %.not2124.i = icmp samesign eq i64 %40, 0
  br i1 %.not2124.i, label %lxb_html_tree_insertion_mode_in_body_text_append.exit, label %.lr.ph.i

42:                                               ; preds = %.lr.ph.i
  %43 = getelementptr inbounds nuw i8, ptr %.01825.i, i64 1
  %.not21.i = icmp eq ptr %43, %41
  br i1 %.not21.i, label %lxb_html_tree_insertion_mode_in_body_text_append.exit, label %.lr.ph.i

.lr.ph.i:                                         ; preds = %38, %42
  %.01825.i = phi ptr [ %43, %42 ], [ %39, %38 ]
  %44 = load i8, ptr %.01825.i, align 1, !tbaa !31
  %45 = zext i8 %44 to i64
  %46 = getelementptr inbounds nuw [256 x i8], ptr @lexbor_tokenizer_chars_map, i64 0, i64 %45
  %47 = load i8, ptr %46, align 1, !tbaa !31
  %.not22.i = icmp eq i8 %47, 2
  br i1 %.not22.i, label %42, label %48

48:                                               ; preds = %.lr.ph.i
  store i8 0, ptr %35, align 1, !tbaa !25
  br label %lxb_html_tree_insertion_mode_in_body_text_append.exit

lxb_html_tree_insertion_mode_in_body_text_append.exit: ; preds = %42, %34, %38, %48
  %49 = call i32 @lxb_html_tree_insert_character_for_data(ptr noundef nonnull %0, ptr noundef nonnull %3, ptr noundef null) #6
  store i32 %49, ptr %19, align 8, !tbaa !22
  %.not17 = icmp eq i32 %49, 0
  br i1 %.not17, label %51, label %lxb_html_tree_insertion_mode_in_body_text_append.exit.thread

lxb_html_tree_insertion_mode_in_body_text_append.exit.thread: ; preds = %32, %lxb_html_tree_insertion_mode_in_body_text_append.exit
  %50 = call zeroext i1 @lxb_html_tree_process_abort(ptr noundef nonnull %0) #6
  br label %51

51:                                               ; preds = %lxb_html_tree_insertion_mode_in_body_text_append.exit, %lxb_html_tree_insertion_mode_in_body_text_append.exit.thread, %26, %20
  %.0 = phi i1 [ %21, %20 ], [ true, %26 ], [ %50, %lxb_html_tree_insertion_mode_in_body_text_append.exit.thread ], [ true, %lxb_html_tree_insertion_mode_in_body_text_append.exit ]
  call void @llvm.lifetime.end.p0(i64 16, ptr nonnull %3) #6
  ret i1 %.0
}